; Function Attrs: nounwind uwtable
define range(i32 0, 2) i32 @ossl_quic_tx_packetiser_set_initial_token(ptr noundef captures(none) %0, ptr noundef %1, i64 noundef %2, ptr noundef %3, ptr noundef %4) local_unnamed_addr #3 {
  %6 = getelementptr i8, ptr %0, i64 160
  %.val = load ptr, ptr %6, align 8, !tbaa !66
  %7 = tail call i64 @ossl_qtx_get_mdpl(ptr noundef %.val) #10
  %8 = icmp eq i64 %2, 0
  br i1 %8, label %txp_check_token_len.exit.thread22, label %9

9:                                                ; preds = %5
  %.not.i = icmp uge i64 %2, %7
  %10 = icmp ult i64 %7, 161
  %or.cond.i = or i1 %.not.i, %10
  %11 = add i64 %7, -160
  %.not25 = icmp ugt i64 %2, %11
  %or.cond = or i1 %or.cond.i, %.not25
  br i1 %or.cond, label %txp_check_token_len.exit.thread, label %txp_check_token_len.exit.thread22

txp_check_token_len.exit.thread22:                ; preds = %9, %5
  %12 = getelementptr inbounds nuw i8, ptr %0, i64 312
  %13 = load ptr, ptr %12, align 8, !tbaa !67
  %.not18 = icmp eq ptr %13, null
  br i1 %.not18, label %22, label %14

14:                                               ; preds = %txp_check_token_len.exit.thread22
  %15 = getelementptr inbounds nuw i8, ptr %0, i64 328
  %16 = load ptr, ptr %15, align 8, !tbaa !68
  %.not19 = icmp eq ptr %16, null
  br i1 %.not19, label %22, label %17

17:                                               ; preds = %14
  %18 = getelementptr inbounds nuw i8, ptr %0, i64 320
  %19 = load i64, ptr %18, align 8, !tbaa !69
  %20 = getelementptr inbounds nuw i8, ptr %0, i64 336
  %21 = load ptr, ptr %20, align 8, !tbaa !70
  tail call void %16(ptr noundef nonnull %13, i64 noundef %19, ptr noundef %21) #10
  br label %22

22:                                               ; preds = %17, %14, %txp_check_token_len.exit.thread22
  store ptr %1, ptr %12, align 8, !tbaa !67
  %23 = getelementptr inbounds nuw i8, ptr %0, i64 320
  store i64 %2, ptr %23, align 8, !tbaa !69
  %24 = getelementptr inbounds nuw i8, ptr %0, i64 328
  store ptr %3, ptr %24, align 8, !tbaa !68
  %25 = getelementptr inbounds nuw i8, ptr %0, i64 336
  store ptr %4, ptr %25, align 8, !tbaa !70
  br label %txp_check_token_len.exit.thread

txp_check_token_len.exit.thread:                  ; preds = %9, %22
  %.0 = phi i32 [ 1, %22 ], [ 0, %9 ]
  ret i32 %.0
}